; ModuleID = '14/150.c'
source_filename = "14/150.c"
target datalayout = "e-m:e-p270:32:32-p271:32:32-p272:64:64-i64:64-f80:128-n8:16:32:64-S128"
target triple = "x86_64-pc-linux-gnu"

%struct.student = type { i32, i32, i32 }

@.str = private unnamed_addr constant [3 x i8] c"%d\00", align 1
@.str.1 = private unnamed_addr constant [7 x i8] c"%d %d\0A\00", align 1

; Function Attrs: noinline nounwind uwtable
define dso_local i32 @main() #0 {
  %1 = alloca i32, align 4
  %2 = alloca i32, align 4
  %3 = alloca [100000 x %struct.student], align 16
  %4 = alloca %struct.student, align 4
  %5 = alloca i32, align 4
  store i32 0, i32* %1, align 4
  %6 = call i32 (i8*, ...) @__isoc99_scanf(i8* getelementptr inbounds ([3 x i8], [3 x i8]* @.str, i64 0, i64 0), i32* %2)
  store i32 0, i32* %5, align 4
  br label %7

7:                                                ; preds = %27, %0
  %8 = load i32, i32* %5, align 4
  %9 = load i32, i32* %2, align 4
  %10 = icmp slt i32 %8, %9
  br i1 %10, label %11, label %30

11:                                               ; preds = %7
  %12 = load i32, i32* %5, align 4
  %13 = sext i32 %12 to i64
  %14 = getelementptr inbounds [100000 x %struct.student], [100000 x %struct.student]* %3, i64 0, i64 %13
  %15 = getelementptr inbounds %struct.student, %struct.student* %14, i32 0, i32 0
  %16 = call i32 (i8*, ...) @__isoc99_scanf(i8* getelementptr inbounds ([3 x i8], [3 x i8]* @.str, i64 0, i64 0), i32* %15)
  %17 = load i32, i32* %5, align 4
  %18 = sext i32 %17 to i64
  %19 = getelementptr inbounds [100000 x %struct.student], [100000 x %struct.student]* %3, i64 0, i64 %18
  %20 = getelementptr inbounds %struct.student, %struct.student* %19, i32 0, i32 1
  %21 = call i32 (i8*, ...) @__isoc99_scanf(i8* getelementptr inbounds ([3 x i8], [3 x i8]* @.str, i64 0, i64 0), i32* %20)
  %22 = load i32, i32* %5, align 4
  %23 = sext i32 %22 to i64
  %24 = getelementptr inbounds [100000 x %struct.student], [100000 x %struct.student]* %3, i64 0, i64 %23
  %25 = getelementptr inbounds %struct.student, %struct.student* %24, i32 0, i32 2
  %26 = call i32 (i8*, ...) @__isoc99_scanf(i8* getelementptr inbounds ([3 x i8], [3 x i8]* @.str, i64 0, i64 0), i32* %25)
  br label %27

27:                                               ; preds = %11
  %28 = load i32, i32* %5, align 4
  %29 = add nsw i32 %28, 1
  store i32 %29, i32* %5, align 4
  br label %7

30:                                               ; preds = %7
  store i32 1, i32* %5, align 4
  br label %31

31:                                               ; preds = %71, %30
  %32 = load i32, i32* %5, align 4
  %33 = load i32, i32* %2, align 4
  %34 = icmp slt i32 %32, %33
  br i1 %34, label %35, label %74

35:                                               ; preds = %31
  %36 = load i32, i32* %5, align 4
  %37 = sext i32 %36 to i64
  %38 = getelementptr inbounds [100000 x %struct.student], [100000 x %struct.student]* %3, i64 0, i64 %37
  %39 = getelementptr inbounds %struct.student, %struct.student* %38, i32 0, i32 1
  %40 = load i32, i32* %39, align 4
  %41 = load i32, i32* %5, align 4
  %42 = sext i32 %41 to i64
  %43 = getelementptr inbounds [100000 x %struct.student], [100000 x %struct.student]* %3, i64 0, i64 %42
  %44 = getelementptr inbounds %struct.student, %struct.student* %43, i32 0, i32 2
  %45 = load i32, i32* %44, align 4
  %46 = add nsw i32 %40, %45
  %47 = getelementptr inbounds [100000 x %struct.student], [100000 x %struct.student]* %3, i64 0, i64 0
  %48 = getelementptr inbounds %struct.student, %struct.student* %47, i32 0, i32 1
  %49 = load i32, i32* %48, align 4
  %50 = getelementptr inbounds [100000 x %struct.student], [100000 x %struct.student]* %3, i64 0, i64 0
  %51 = getelementptr inbounds %struct.student, %struct.student* %50, i32 0, i32 2
  %52 = load i32, i32* %51, align 8
  %53 = add nsw i32 %49, %52
  %54 = icmp sgt i32 %46, %53
  br i1 %54, label %55, label %70

55:                                               ; preds = %35
  %56 = getelementptr inbounds [100000 x %struct.student], [100000 x %struct.student]* %3, i64 0, i64 0
  %57 = bitcast %struct.student* %4 to i8*
  %58 = bitcast %struct.student* %56 to i8*
  call void @llvm.memcpy.p0i8.p0i8.i64(i8* align 4 %57, i8* align 16 %58, i64 12, i1 false)
  %59 = getelementptr inbounds [100000 x %struct.student], [100000 x %struct.student]* %3, i64 0, i64 0
  %60 = load i32, i32* %5, align 4
  %61 = sext i32 %60 to i64
  %62 = getelementptr inbounds [100000 x %struct.student], [100000 x %struct.student]* %3, i64 0, i64 %61
  %63 = bitcast %struct.student* %59 to i8*
  %64 = bitcast %struct.student* %62 to i8*
  call void @llvm.memcpy.p0i8.p0i8.i64(i8* align 16 %63, i8* align 4 %64, i64 12, i1 false)
  %65 = load i32, i32* %5, align 4
  %66 = sext i32 %65 to i64
  %67 = getelementptr inbounds [100000 x %struct.student], [100000 x %struct.student]* %3, i64 0, i64 %66
  %68 = bitcast %struct.student* %67 to i8*
  %69 = bitcast %struct.student* %4 to i8*
  call void @llvm.memcpy.p0i8.p0i8.i64(i8* align 4 %68, i8* align 4 %69, i64 12, i1 false)
  br label %70

70:                                               ; preds = %55, %35
  br label %71

71:                                               ; preds = %70
  %72 = load i32, i32* %5, align 4
  %73 = add nsw i32 %72, 1
  store i32 %73, i32* %5, align 4
  br label %31

74:                                               ; preds = %31
  %75 = getelementptr inbounds [100000 x %struct.student], [100000 x %struct.student]* %3, i64 0, i64 0
  %76 = getelementptr inbounds %struct.student, %struct.student* %75, i32 0, i32 0
  %77 = load i32, i32* %76, align 16
  %78 = getelementptr inbounds [100000 x %struct.student], [100000 x %struct.student]* %3, i64 0, i64 0
  %79 = getelementptr inbounds %struct.student, %struct.student* %78, i32 0, i32 1
  %80 = load i32, i32* %79, align 4
  %81 = getelementptr inbounds [100000 x %struct.student], [100000 x %struct.student]* %3, i64 0, i64 0
  %82 = getelementptr inbounds %struct.student, %struct.student* %81, i32 0, i32 2
  %83 = load i32, i32* %82, align 8
  %84 = add nsw i32 %80, %83
  %85 = call i32 (i8*, ...) @printf(i8* getelementptr inbounds ([7 x i8], [7 x i8]* @.str.1, i64 0, i64 0), i32 %77, i32 %84)
  store i32 2, i32* %5, align 4
  br label %86

86:                                               ; preds = %126, %74
  %87 = load i32, i32* %5, align 4
  %88 = load i32, i32* %2, align 4
  %89 = icmp slt i32 %87, %88
  br i1 %89, label %90, label %129

90:                                               ; preds = %86
  %91 = load i32, i32* %5, align 4
  %92 = sext i32 %91 to i64
  %93 = getelementptr inbounds [100000 x %struct.student], [100000 x %struct.student]* %3, i64 0, i64 %92
  %94 = getelementptr inbounds %struct.student, %struct.student* %93, i32 0, i32 1
  %95 = load i32, i32* %94, align 4
  %96 = load i32, i32* %5, align 4
  %97 = sext i32 %96 to i64
  %98 = getelementptr inbounds [100000 x %struct.student], [100000 x %struct.student]* %3, i64 0, i64 %97
  %99 = getelementptr inbounds %struct.student, %struct.student* %98, i32 0, i32 2
  %100 = load i32, i32* %99, align 4
  %101 = add nsw i32 %95, %100
  %102 = getelementptr inbounds [100000 x %struct.student], [100000 x %struct.student]* %3, i64 0, i64 1
  %103 = getelementptr inbounds %struct.student, %struct.student* %102, i32 0, i32 1
  %104 = load i32, i32* %103, align 4
  %105 = getelementptr inbounds [100000 x %struct.student], [100000 x %struct.student]* %3, i64 0, i64 1
  %106 = getelementptr inbounds %struct.student, %struct.student* %105, i32 0, i32 2
  %107 = load i32, i32* %106, align 4
  %108 = add nsw i32 %104, %107
  %109 = icmp sgt i32 %101, %108
  br i1 %109, label %110, label %125

110:                                              ; preds = %90
  %111 = getelementptr inbounds [100000 x %struct.student], [100000 x %struct.student]* %3, i64 0, i64 1
  %112 = bitcast %struct.student* %4 to i8*
  %113 = bitcast %struct.student* %111 to i8*
  call void @llvm.memcpy.p0i8.p0i8.i64(i8* align 4 %112, i8* align 4 %113, i64 12, i1 false)
  %114 = getelementptr inbounds [100000 x %struct.student], [100000 x %struct.student]* %3, i64 0, i64 1
  %115 = load i32, i32* %5, align 4
  %116 = sext i32 %115 to i64
  %117 = getelementptr inbounds [100000 x %struct.student], [100000 x %struct.student]* %3, i64 0, i64 %116
  %118 = bitcast %struct.student* %114 to i8*
  %119 = bitcast %struct.student* %117 to i8*
  call void @llvm.memcpy.p0i8.p0i8.i64(i8* align 4 %118, i8* align 4 %119, i64 12, i1 false)
  %120 = load i32, i32* %5, align 4
  %121 = sext i32 %120 to i64
  %122 = getelementptr inbounds [100000 x %struct.student], [100000 x %struct.student]* %3, i64 0, i64 %121
  %123 = bitcast %struct.student* %122 to i8*
  %124 = bitcast %struct.student* %4 to i8*
  call void @llvm.memcpy.p0i8.p0i8.i64(i8* align 4 %123, i8* align 4 %124, i64 12, i1 false)
  br label %125

125:                                              ; preds = %110, %90
  br label %126

126:                                              ; preds = %125
  %127 = load i32, i32* %5, align 4
  %128 = add nsw i32 %127, 1
  store i32 %128, i32* %5, align 4
  br label %86

129:                                              ; preds = %86
  %130 = getelementptr inbounds [100000 x %struct.student], [100000 x %struct.student]* %3, i64 0, i64 1
  %131 = getelementptr inbounds %struct.student, %struct.student* %130, i32 0, i32 0
  %132 = load i32, i32* %131, align 4
  %133 = getelementptr inbounds [100000 x %struct.student], [100000 x %struct.student]* %3, i64 0, i64 1
  %134 = getelementptr inbounds %struct.student, %struct.student* %133, i32 0, i32 1
  %135 = load i32, i32* %134, align 4
  %136 = getelementptr inbounds [100000 x %struct.student], [100000 x %struct.student]* %3, i64 0, i64 1
  %137 = getelementptr inbounds %struct.student, %struct.student* %136, i32 0, i32 2
  %138 = load i32, i32* %137, align 4
  %139 = add nsw i32 %135, %138
  %140 = call i32 (i8*, ...) @printf(i8* getelementptr inbounds ([7 x i8], [7 x i8]* @.str.1, i64 0, i64 0), i32 %132, i32 %139)
  store i32 3, i32* %5, align 4
  br label %141

141:                                              ; preds = %181, %129
  %142 = load i32, i32* %5, align 4
  %143 = load i32, i32* %2, align 4
  %144 = icmp slt i32 %142, %143
  br i1 %144, label %145, label %184

145:                                              ; preds = %141
  %146 = load i32, i32* %5, align 4
  %147 = sext i32 %146 to i64
  %148 = getelementptr inbounds [100000 x %struct.student], [100000 x %struct.student]* %3, i64 0, i64 %147
  %149 = getelementptr inbounds %struct.student, %struct.student* %148, i32 0, i32 1
  %150 = load i32, i32* %149, align 4
  %151 = load i32, i32* %5, align 4
  %152 = sext i32 %151 to i64
  %153 = getelementptr inbounds [100000 x %struct.student], [100000 x %struct.student]* %3, i64 0, i64 %152
  %154 = getelementptr inbounds %struct.student, %struct.student* %153, i32 0, i32 2
  %155 = load i32, i32* %154, align 4
  %156 = add nsw i32 %150, %155
  %157 = getelementptr inbounds [100000 x %struct.student], [100000 x %struct.student]* %3, i64 0, i64 2
  %158 = getelementptr inbounds %struct.student, %struct.student* %157, i32 0, i32 1
  %159 = load i32, i32* %158, align 4
  %160 = getelementptr inbounds [100000 x %struct.student], [100000 x %struct.student]* %3, i64 0, i64 2
  %161 = getelementptr inbounds %struct.student, %struct.student* %160, i32 0, i32 2
  %162 = load i32, i32* %161, align 8
  %163 = add nsw i32 %159, %162
  %164 = icmp sgt i32 %156, %163
  br i1 %164, label %165, label %180

165:                                              ; preds = %145
  %166 = getelementptr inbounds [100000 x %struct.student], [100000 x %struct.student]* %3, i64 0, i64 2
  %167 = bitcast %struct.student* %4 to i8*
  %168 = bitcast %struct.student* %166 to i8*
  call void @llvm.memcpy.p0i8.p0i8.i64(i8* align 4 %167, i8* align 8 %168, i64 12, i1 false)
  %169 = getelementptr inbounds [100000 x %struct.student], [100000 x %struct.student]* %3, i64 0, i64 2
  %170 = load i32, i32* %5, align 4
  %171 = sext i32 %170 to i64
  %172 = getelementptr inbounds [100000 x %struct.student], [100000 x %struct.student]* %3, i64 0, i64 %171
  %173 = bitcast %struct.student* %169 to i8*
  %174 = bitcast %struct.student* %172 to i8*
  call void @llvm.memcpy.p0i8.p0i8.i64(i8* align 8 %173, i8* align 4 %174, i64 12, i1 false)
  %175 = load i32, i32* %5, align 4
  %176 = sext i32 %175 to i64
  %177 = getelementptr inbounds [100000 x %struct.student], [100000 x %struct.student]* %3, i64 0, i64 %176
  %178 = bitcast %struct.student* %177 to i8*
  %179 = bitcast %struct.student* %4 to i8*
  call void @llvm.memcpy.p0i8.p0i8.i64(i8* align 4 %178, i8* align 4 %179, i64 12, i1 false)
  br label %180

180:                                              ; preds = %165, %145
  br label %181

181:                                              ; preds = %180
  %182 = load i32, i32* %5, align 4
  %183 = add nsw i32 %182, 1
  store i32 %183, i32* %5, align 4
  br label %141

184:                                              ; preds = %141
  %185 = getelementptr inbounds [100000 x %struct.student], [100000 x %struct.student]* %3, i64 0, i64 2
  %186 = getelementptr inbounds %struct.student, %struct.student* %185, i32 0, i32 0
  %187 = load i32, i32* %186, align 8
  %188 = getelementptr inbounds [100000 x %struct.student], [100000 x %struct.student]* %3, i64 0, i64 2
  %189 = getelementptr inbounds %struct.student, %struct.student* %188, i32 0, i32 1
  %190 = load i32, i32* %189, align 4
  %191 = getelementptr inbounds [100000 x %struct.student], [100000 x %struct.student]* %3, i64 0, i64 2
  %192 = getelementptr inbounds %struct.student, %struct.student* %191, i32 0, i32 2
  %193 = load i32, i32* %192, align 8
  %194 = add nsw i32 %190, %193
  %195 = call i32 (i8*, ...) @printf(i8* getelementptr inbounds ([7 x i8], [7 x i8]* @.str.1, i64 0, i64 0), i32 %187, i32 %194)
  ret i32 0
}

declare dso_local i32 @__isoc99_scanf(i8*, ...) #1

; Function Attrs: argmemonly nounwind willreturn
declare void @llvm.memcpy.p0i8.p0i8.i64(i8* noalias nocapture writeonly, i8* noalias nocapture readonly, i64, i1 immarg) #2

declare dso_local i32 @printf(i8*, ...) #1


!llvm.module.flags = !{!0}
!llvm.ident = !{!1}

!0 = !{i32 1, !"wchar_size", i32 4}
!1 = !{!"clang version 10.0.0-4ubuntu1 "}
